
Memory Configuration

Name             Origin             Length             Attributes
ROM              0x0000000000010000 0x000000000000c000 xr
RAM              0x0000000000100000 0x0000000000010000 xrw
*default*        0x0000000000000000 0xffffffffffffffff

Linker script and memory map


.text           0x0000000000010000     0x9e64
                0x0000000000010000                . = ALIGN (0x4)
 *(.text)
 .text          0x0000000000010000      0x1b8 firmware/start.o
                0x00000000000100d0                lui_ret
                0x00000000000100d4                auipc_ret
                0x00000000000100d8                j_ret
                0x00000000000100dc                jal_ret
                0x00000000000100e0                jalr_ret
                0x00000000000100e4                beq_ret
                0x00000000000100e8                bne_ret
                0x00000000000100ec                blt_ret
                0x00000000000100f0                bge_ret
                0x00000000000100f4                bltu_ret
                0x00000000000100f8                bgeu_ret
                0x00000000000100fc                lb_ret
                0x0000000000010100                lh_ret
                0x0000000000010104                lw_ret
                0x0000000000010108                lbu_ret
                0x000000000001010c                lhu_ret
                0x0000000000010110                sb_ret
                0x0000000000010114                sh_ret
                0x0000000000010118                sw_ret
                0x000000000001011c                addi_ret
                0x0000000000010120                slti_ret
                0x0000000000010124                xori_ret
                0x0000000000010128                ori_ret
                0x000000000001012c                andi_ret
                0x0000000000010130                slli_ret
                0x0000000000010134                srli_ret
                0x0000000000010138                srai_ret
                0x000000000001013c                add_ret
                0x0000000000010140                sub_ret
                0x0000000000010144                sll_ret
                0x0000000000010148                slt_ret
                0x000000000001014c                xor_ret
                0x0000000000010150                srl_ret
                0x0000000000010154                sra_ret
                0x0000000000010158                or_ret
                0x000000000001015c                and_ret
                0x0000000000010160                mulh_ret
                0x0000000000010164                mulhsu_ret
                0x0000000000010168                mulhu_ret
                0x000000000001016c                mul_ret
                0x0000000000010170                simple_ret
 .text          0x00000000000101b8      0x578 test/or.o
                0x00000000000101b8                or
 .text          0x0000000000010730      0x574 test/xor.o
                0x0000000000010730                xor
 .text          0x0000000000010ca4      0x52c test/sh.o
                0x0000000000010ca4                sh
 .text          0x00000000000111d0      0x574 test/sub.o
                0x00000000000111d0                sub
 .text          0x0000000000011744      0x620 test/sll.o
                0x0000000000011744                sll
 .text          0x0000000000011d64      0x300 test/lb.o
                0x0000000000011d64                lb
 .text          0x0000000000012064      0x320 test/lh.o
                0x0000000000012064                lh
 .text          0x0000000000012384      0x370 test/srai.o
                0x0000000000012384                srai
 .text          0x00000000000126f4      0x3ac test/bltu.o
                0x00000000000126f4                bltu
 .text          0x0000000000012aa0      0x57c test/mul.o
                0x0000000000012aa0                mul
 .text          0x000000000001301c      0x32c test/slti.o
                0x000000000001301c                slti
 .text          0x0000000000013348      0x374 test/beq.o
                0x0000000000013348                beq
 .text          0x00000000000136bc      0x33c test/slli.o
                0x00000000000136bc                slli
 .text          0x00000000000139f8      0x36c test/srli.o
                0x00000000000139f8                srli
 .text          0x0000000000013d64      0x538 test/sw.o
                0x0000000000013d64                sw
 .text          0x000000000001429c      0x340 test/lw.o
                0x000000000001429c                lw
 *fill*         0x00000000000145dc        0x4 
 .text          0x00000000000145e0      0x100 test/auipc.o
                0x00000000000145e0                auipc
 .text          0x00000000000146e0      0x340 test/addi.o
                0x00000000000146e0                addi
 .text          0x0000000000014a20      0x1b8 test/jalr.o
                0x0000000000014a20                jalr
 .text          0x0000000000014bd8      0x378 test/bne.o
                0x0000000000014bd8                bne
 .text          0x0000000000014f50      0x29c test/xori.o
                0x0000000000014f50                xori
 .text          0x00000000000151ec      0x40c test/bgeu.o
                0x00000000000151ec                bgeu
 .text          0x00000000000155f8      0x580 test/mulhu.o
                0x00000000000155f8                mulhu
 .text          0x0000000000015b78      0x670 test/srl.o
                0x0000000000015b78                srl
 .text          0x00000000000161e8      0x57c test/slt.o
                0x00000000000161e8                slt
 .text          0x0000000000016764      0x300 test/lbu.o
                0x0000000000016764                lbu
 .text          0x0000000000016a64      0x334 test/lhu.o
                0x0000000000016a64                lhu
 .text          0x0000000000016d98      0x114 test/lui.o
                0x0000000000016d98                lui
 .text          0x0000000000016eac       0x74 test/simple.o
                0x0000000000016eac                simple
 .text          0x0000000000016f20      0x650 test/sra.o
                0x0000000000016f20                sra
 .text          0x0000000000017570      0x56c test/and.o
                0x0000000000017570                and
 .text          0x0000000000017adc      0x290 test/ori.o
                0x0000000000017adc                ori
 .text          0x0000000000017d6c      0x10c test/jal.o
                0x0000000000017d6c                jal
 .text          0x0000000000017e78      0x594 test/add.o
                0x0000000000017e78                add
 .text          0x000000000001840c      0x4a8 test/sb.o
                0x000000000001840c                sb
 .text          0x00000000000188b4      0x278 test/andi.o
                0x00000000000188b4                andi
 .text          0x0000000000018b2c       0xf0 test/j.o
                0x0000000000018b2c                j
 .text          0x0000000000018c1c      0x3d4 test/bge.o
                0x0000000000018c1c                bge
 .text          0x0000000000018ff0      0x374 test/blt.o
                0x0000000000018ff0                blt
 .text          0x0000000000019364      0x580 test/mulh.o
                0x0000000000019364                mulh
 .text          0x00000000000198e4      0x580 test/mulhsu.o
                0x00000000000198e4                mulhsu
 *(.text*)
 *(.rodata)
 *(.rodata*)
 *(.srodata)
 *(.srodata*)
                0x0000000000019e64                . = ALIGN (0x4)
                0x0000000000019e64                _etext = .
                0x0000000000019e64                _sidata = _etext

.rela.dyn       0x0000000000019e64        0x0
 .rela.text     0x0000000000019e64        0x0 firmware/start.o

.data           0x0000000000100000       0x70 load address 0x0000000000019e64
                0x0000000000100000                . = ALIGN (0x4)
                0x0000000000100000                _sdata = .
                0x0000000000100000                _ram_start = .
                0x0000000000100000                . = ALIGN (0x4)
 *(.data)
 .data          0x0000000000100000        0x0 firmware/start.o
 .data          0x0000000000100000        0x0 test/or.o
 .data          0x0000000000100000        0x0 test/xor.o
 .data          0x0000000000100000       0x14 test/sh.o
 .data          0x0000000000100014        0x0 test/sub.o
 .data          0x0000000000100014        0x0 test/sll.o
 .data          0x0000000000100014        0x4 test/lb.o
 .data          0x0000000000100018        0x8 test/lh.o
 .data          0x0000000000100020        0x0 test/srai.o
 .data          0x0000000000100020        0x0 test/bltu.o
 .data          0x0000000000100020        0x0 test/mul.o
 .data          0x0000000000100020        0x0 test/slti.o
 .data          0x0000000000100020        0x0 test/beq.o
 .data          0x0000000000100020        0x0 test/slli.o
 .data          0x0000000000100020        0x0 test/srli.o
 .data          0x0000000000100020       0x28 test/sw.o
 .data          0x0000000000100048       0x10 test/lw.o
 .data          0x0000000000100058        0x0 test/auipc.o
 .data          0x0000000000100058        0x0 test/addi.o
 .data          0x0000000000100058        0x0 test/jalr.o
 .data          0x0000000000100058        0x0 test/bne.o
 .data          0x0000000000100058        0x0 test/xori.o
 .data          0x0000000000100058        0x0 test/bgeu.o
 .data          0x0000000000100058        0x0 test/mulhu.o
 .data          0x0000000000100058        0x0 test/srl.o
 .data          0x0000000000100058        0x0 test/slt.o
 .data          0x0000000000100058        0x4 test/lbu.o
 .data          0x000000000010005c        0x8 test/lhu.o
 .data          0x0000000000100064        0x0 test/lui.o
 .data          0x0000000000100064        0x0 test/simple.o
 .data          0x0000000000100064        0x0 test/sra.o
 .data          0x0000000000100064        0x0 test/and.o
 .data          0x0000000000100064        0x0 test/ori.o
 .data          0x0000000000100064        0x0 test/jal.o
 .data          0x0000000000100064        0x0 test/add.o
 .data          0x0000000000100064        0xa test/sb.o
 *fill*         0x000000000010006e        0x2 
 .data          0x0000000000100070        0x0 test/andi.o
 .data          0x0000000000100070        0x0 test/j.o
 .data          0x0000000000100070        0x0 test/bge.o
 .data          0x0000000000100070        0x0 test/blt.o
 .data          0x0000000000100070        0x0 test/mulh.o
 .data          0x0000000000100070        0x0 test/mulhsu.o
 *(.data*)
 *(.sdata)
 *(.sdata*)
                0x0000000000100070                . = ALIGN (0x4)
                0x0000000000100070                _edata = .

.bss            0x0000000000100070        0x0 load address 0x0000000000019ed4
                0x0000000000100070                . = ALIGN (0x4)
                0x0000000000100070                _sbss = .
 *(.bss)
 .bss           0x0000000000100070        0x0 firmware/start.o
 .bss           0x0000000000100070        0x0 test/or.o
 .bss           0x0000000000100070        0x0 test/xor.o
 .bss           0x0000000000100070        0x0 test/sh.o
 .bss           0x0000000000100070        0x0 test/sub.o
 .bss           0x0000000000100070        0x0 test/sll.o
 .bss           0x0000000000100070        0x0 test/lb.o
 .bss           0x0000000000100070        0x0 test/lh.o
 .bss           0x0000000000100070        0x0 test/srai.o
 .bss           0x0000000000100070        0x0 test/bltu.o
 .bss           0x0000000000100070        0x0 test/mul.o
 .bss           0x0000000000100070        0x0 test/slti.o
 .bss           0x0000000000100070        0x0 test/beq.o
 .bss           0x0000000000100070        0x0 test/slli.o
 .bss           0x0000000000100070        0x0 test/srli.o
 .bss           0x0000000000100070        0x0 test/sw.o
 .bss           0x0000000000100070        0x0 test/lw.o
 .bss           0x0000000000100070        0x0 test/auipc.o
 .bss           0x0000000000100070        0x0 test/addi.o
 .bss           0x0000000000100070        0x0 test/jalr.o
 .bss           0x0000000000100070        0x0 test/bne.o
 .bss           0x0000000000100070        0x0 test/xori.o
 .bss           0x0000000000100070        0x0 test/bgeu.o
 .bss           0x0000000000100070        0x0 test/mulhu.o
 .bss           0x0000000000100070        0x0 test/srl.o
 .bss           0x0000000000100070        0x0 test/slt.o
 .bss           0x0000000000100070        0x0 test/lbu.o
 .bss           0x0000000000100070        0x0 test/lhu.o
 .bss           0x0000000000100070        0x0 test/lui.o
 .bss           0x0000000000100070        0x0 test/simple.o
 .bss           0x0000000000100070        0x0 test/sra.o
 .bss           0x0000000000100070        0x0 test/and.o
 .bss           0x0000000000100070        0x0 test/ori.o
 .bss           0x0000000000100070        0x0 test/jal.o
 .bss           0x0000000000100070        0x0 test/add.o
 .bss           0x0000000000100070        0x0 test/sb.o
 .bss           0x0000000000100070        0x0 test/andi.o
 .bss           0x0000000000100070        0x0 test/j.o
 .bss           0x0000000000100070        0x0 test/bge.o
 .bss           0x0000000000100070        0x0 test/blt.o
 .bss           0x0000000000100070        0x0 test/mulh.o
 .bss           0x0000000000100070        0x0 test/mulhsu.o
 *(.bss*)
 *(.sbss)
 *(.sbss*)
 *(COMMON)
                0x0000000000100070                . = ALIGN (0x4)
                0x0000000000100070                _ebss = .

.heap           0x0000000000100070        0x0
                0x0000000000100070                . = ALIGN (0x4)
                0x0000000000100070                _heap_start = .
LOAD firmware/start.o
LOAD test/or.o
LOAD test/xor.o
LOAD test/sh.o
LOAD test/sub.o
LOAD test/sll.o
LOAD test/lb.o
LOAD test/lh.o
LOAD test/srai.o
LOAD test/bltu.o
LOAD test/mul.o
LOAD test/slti.o
LOAD test/beq.o
LOAD test/slli.o
LOAD test/srli.o
LOAD test/sw.o
LOAD test/lw.o
LOAD test/auipc.o
LOAD test/addi.o
LOAD test/jalr.o
LOAD test/bne.o
LOAD test/xori.o
LOAD test/bgeu.o
LOAD test/mulhu.o
LOAD test/srl.o
LOAD test/slt.o
LOAD test/lbu.o
LOAD test/lhu.o
LOAD test/lui.o
LOAD test/simple.o
LOAD test/sra.o
LOAD test/and.o
LOAD test/ori.o
LOAD test/jal.o
LOAD test/add.o
LOAD test/sb.o
LOAD test/andi.o
LOAD test/j.o
LOAD test/bge.o
LOAD test/blt.o
LOAD test/mulh.o
LOAD test/mulhsu.o
LOAD /opt/riscv32im/lib/gcc/riscv32-unknown-elf/8.2.0/libgcc.a
OUTPUT(firmware/firmware.elf elf32-littleriscv)
