
Memory Configuration

Name             Origin             Length             Attributes
ROM              0x0000000000010000 0x000000000000c000 xr
RAM              0x0000000000100000 0x0000000000010000 xrw
*default*        0x0000000000000000 0xffffffffffffffff

Linker script and memory map


.text           0x0000000000010000      0xcf8
                0x0000000000010000                . = ALIGN (0x4)
 *(.text)
 .text          0x0000000000010000      0x13c firmware/start.o
                0x00000000000100d0                amoadd_w_ret
                0x00000000000100d4                amoand_w_ret
                0x00000000000100d8                amomaxu_w_ret
                0x00000000000100dc                amomax_w_ret
                0x00000000000100e0                amominu_w_ret
                0x00000000000100e4                amomin_w_ret
                0x00000000000100e8                amoor_w_ret
                0x00000000000100ec                amoswap_w_ret
                0x00000000000100f0                amoxor_w_ret
                0x00000000000100f4                lrsc_ret
 .text          0x000000000001013c      0x114 rv32ua/amoor_w.o
                0x000000000001013c                amoor_w
 .text          0x0000000000010250      0x120 rv32ua/amoadd_w.o
                0x0000000000010250                amoadd_w
 .text          0x0000000000010370      0x11c rv32ua/amomax_w.o
                0x0000000000010370                amomax_w
 .text          0x000000000001048c      0x128 rv32ua/amoxor_w.o
                0x000000000001048c                amoxor_w
 .text          0x00000000000105b4      0x11c rv32ua/amomin_w.o
                0x00000000000105b4                amomin_w
 .text          0x00000000000106d0      0x11c rv32ua/amomaxu_w.o
                0x00000000000106d0                amomaxu_w
 .text          0x00000000000107ec      0x1c0 rv32ua/lrsc.o
                0x00000000000107ec                lrsc
 .text          0x00000000000109ac      0x118 rv32ua/amoswap_w.o
                0x00000000000109ac                amoswap_w
 .text          0x0000000000010ac4      0x11c rv32ua/amominu_w.o
                0x0000000000010ac4                amominu_w
 .text          0x0000000000010be0      0x118 rv32ua/amoand_w.o
                0x0000000000010be0                amoand_w
 *(.text*)
 *(.rodata)
 *(.rodata*)
 *(.srodata)
 *(.srodata*)
                0x0000000000010cf8                . = ALIGN (0x4)
                0x0000000000010cf8                _etext = .
                0x0000000000010cf8                _sidata = _etext

.rela.dyn       0x0000000000010cf8        0x0
 .rela.text     0x0000000000010cf8        0x0 firmware/start.o

.data           0x0000000000100000      0x410 load address 0x0000000000010cf8
                0x0000000000100000                . = ALIGN (0x4)
                0x0000000000100000                _sdata = .
                0x0000000000100000                _ram_start = .
                0x0000000000100000                . = ALIGN (0x4)
 *(.data)
 .data          0x0000000000100000        0x0 firmware/start.o
 .data          0x0000000000100000        0x0 rv32ua/amoor_w.o
 .data          0x0000000000100000        0x0 rv32ua/amoadd_w.o
 .data          0x0000000000100000        0x0 rv32ua/amomax_w.o
 .data          0x0000000000100000        0x0 rv32ua/amoxor_w.o
 .data          0x0000000000100000        0x0 rv32ua/amomin_w.o
 .data          0x0000000000100000        0x0 rv32ua/amomaxu_w.o
 .data          0x0000000000100000      0x410 rv32ua/lrsc.o
 .data          0x0000000000100410        0x0 rv32ua/amoswap_w.o
 .data          0x0000000000100410        0x0 rv32ua/amominu_w.o
 .data          0x0000000000100410        0x0 rv32ua/amoand_w.o
 *(.data*)
 *(.sdata)
 *(.sdata*)
                0x0000000000100410                . = ALIGN (0x4)
                0x0000000000100410                _edata = .

.bss            0x0000000000100410       0x48 load address 0x0000000000011108
                0x0000000000100410                . = ALIGN (0x4)
                0x0000000000100410                _sbss = .
 *(.bss)
 .bss           0x0000000000100410        0x0 firmware/start.o
 .bss           0x0000000000100410        0x8 rv32ua/amoor_w.o
 .bss           0x0000000000100418        0x8 rv32ua/amoadd_w.o
 .bss           0x0000000000100420        0x8 rv32ua/amomax_w.o
 .bss           0x0000000000100428        0x8 rv32ua/amoxor_w.o
 .bss           0x0000000000100430        0x8 rv32ua/amomin_w.o
 .bss           0x0000000000100438        0x8 rv32ua/amomaxu_w.o
 .bss           0x0000000000100440        0x0 rv32ua/lrsc.o
 .bss           0x0000000000100440        0x8 rv32ua/amoswap_w.o
 .bss           0x0000000000100448        0x8 rv32ua/amominu_w.o
 .bss           0x0000000000100450        0x8 rv32ua/amoand_w.o
 *(.bss*)
 *(.sbss)
 *(.sbss*)
 *(COMMON)
                0x0000000000100458                . = ALIGN (0x4)
                0x0000000000100458                _ebss = .

.heap           0x0000000000100458        0x0
                0x0000000000100458                . = ALIGN (0x4)
                0x0000000000100458                _heap_start = .
LOAD firmware/start.o
LOAD rv32ua/amoor_w.o
LOAD rv32ua/amoadd_w.o
LOAD rv32ua/amomax_w.o
LOAD rv32ua/amoxor_w.o
LOAD rv32ua/amomin_w.o
LOAD rv32ua/amomaxu_w.o
LOAD rv32ua/lrsc.o
LOAD rv32ua/amoswap_w.o
LOAD rv32ua/amominu_w.o
LOAD rv32ua/amoand_w.o
LOAD /opt/riscv32ima/bin/../lib/gcc/riscv32-unknown-elf/9.2.0/libgcc.a
OUTPUT(firmware/rv32ua elf32-littleriscv)

.riscv.attributes
                0x0000000000000000       0x24
 .riscv.attributes
                0x0000000000000000       0x24 firmware/start.o
 .riscv.attributes
                0x0000000000000024       0x24 rv32ua/amoor_w.o
 .riscv.attributes
                0x0000000000000048       0x24 rv32ua/amoadd_w.o
 .riscv.attributes
                0x000000000000006c       0x24 rv32ua/amomax_w.o
 .riscv.attributes
                0x0000000000000090       0x24 rv32ua/amoxor_w.o
 .riscv.attributes
                0x00000000000000b4       0x24 rv32ua/amomin_w.o
 .riscv.attributes
                0x00000000000000d8       0x24 rv32ua/amomaxu_w.o
 .riscv.attributes
                0x00000000000000fc       0x24 rv32ua/lrsc.o
 .riscv.attributes
                0x0000000000000120       0x24 rv32ua/amoswap_w.o
 .riscv.attributes
                0x0000000000000144       0x24 rv32ua/amominu_w.o
 .riscv.attributes
                0x0000000000000168       0x24 rv32ua/amoand_w.o
